(lp0
(dp1
S'threshold'
p2
cnumpy.core.multiarray
scalar
p3
(cnumpy
dtype
p4
(S'f8'
p5
I0
I1
tp6
Rp7
(I3
S'<'
p8
NNNI-1
I-1
I0
tp9
bS'gfffff\xe6?'
p10
tp11
Rp12
sS'dim'
p13
I179
sS'ineq'
p14
S'lt'
p15
sS'alpha'
p16
F0.6908852679215315
sa(dp17
g2
g3
(g7
S'\x9a\x99\x99\x99\x99\x99\xd9?'
p18
tp19
Rp20
sg13
I2
sg14
S'gt'
p21
sg16
F0.3041400634443602
sa(dp22
g2
g3
(g7
S'\x9a\x99\x99\x99\x99\x99\xb9?'
p23
tp24
Rp25
sg13
I14
sg14
g21
sg16
F0.2443313442145218
sa(dp26
g2
g3
(g7
S'433333\xe3?'
p27
tp28
Rp29
sg13
I47
sg14
g21
sg16
F0.22466544929346322
sa(dp30
g2
g3
(g7
S'\x00\x00\x00\x00\x00\x00\xe0?'
p31
tp32
Rp33
sg13
I185
sg14
g15
sg16
F0.2367200950582248
sa(dp34
g2
g3
(g7
S'\x00\x00\x00\x00\x00\x00\xe0?'
p35
tp36
Rp37
sg13
I0
sg14
g15
sg16
F0.123505816356825
sa(dp38
g2
g3
(g7
S'\x00\x00\x00\x00\x00\x00\xe0?'
p39
tp40
Rp41
sg13
I23
sg14
g21
sg16
F0.13456340317436347
sa(dp42
g2
g3
(g7
S'\x00\x00\x00\x00\x00\x00\x00\x00'
p43
tp44
Rp45
sg13
I183
sg14
g21
sg16
F0.13289641955579506
sa(dp46
g2
g3
(g7
S'433333\xe3?'
p47
tp48
Rp49
sg13
I50
sg14
g21
sg16
F0.17222729650445098
sa(dp50
g2
g3
(g7
S'\x9a\x99\x99\x99\x99\x99\xd9?'
p51
tp52
Rp53
sg13
I170
sg14
g15
sg16
F0.11695124085594183
sa(dp54
g2
g3
(g7
S'\x00\x00\x00\x00\x00\x00\xe0?'
p55
tp56
Rp57
sg13
I177
sg14
g21
sg16
F0.11512100342793875
sa(dp58
g2
g3
(g7
S'gfffff\xe6?'
p59
tp60
Rp61
sg13
I12
sg14
g15
sg16
F0.12071556649610446
sa(dp62
g2
g3
(g7
S'gfffff\xe6?'
p63
tp64
Rp65
sg13
I179
sg14
g21
sg16
F0.10835605183955743
sa(dp66
g2
g3
(g7
S'\xcd\xcc\xcc\xcc\xcc\xcc\xec?'
p67
tp68
Rp69
sg13
I182
sg14
g15
sg16
F0.10984508485950426
sa(dp70
g2
g3
(g7
S'gfffff\xe6?'
p71
tp72
Rp73
sg13
I2
sg14
g21
sg16
F0.12477458269067422
sa(dp74
g2
g3
(g7
S'\x9a\x99\x99\x99\x99\x99\xd9?'
p75
tp76
Rp77
sg13
I173
sg14
g15
sg16
F0.1032237266016265
sa(dp78
g2
g3
(g7
S'433333\xe3?'
p79
tp80
Rp81
sg13
I45
sg14
g15
sg16
F0.08792517867569744
sa(dp82
g2
g3
(g7
S'\x00\x00\x00\x00\x00\x00\xe0?'
p83
tp84
Rp85
sg13
I71
sg14
g21
sg16
F0.0915849164363691
sa(dp86
g2
g3
(g7
S'433333\xd3?'
p87
tp88
Rp89
sg13
I188
sg14
g15
sg16
F0.07609026498847861
sa(dp90
g2
g3
(g7
S'\x9a\x99\x99\x99\x99\x99\xd9?'
p91
tp92
Rp93
sg13
I183
sg14
g21
sg16
F0.09755424483199347
sa(dp94
g2
g3
(g7
S'\xcd\xcc\xcc\xcc\xcc\xcc\xec?'
p95
tp96
Rp97
sg13
I185
sg14
g15
sg16
F0.08278796219947152
sa(dp98
g2
g3
(g7
S'gfffff\xe6?'
p99
tp100
Rp101
sg13
I179
sg14
g21
sg16
F0.09562349243021162
sa(dp102
g2
g3
(g7
S'433333\xd3?'
p103
tp104
Rp105
sg13
I179
sg14
g15
sg16
F0.07642413791158573
sa(dp106
g2
g3
(g7
S'\x00\x00\x00\x00\x00\x00\x00\x00'
p107
tp108
Rp109
sg13
I19
sg14
g21
sg16
F0.08993755870550975
sa(dp110
g2
g3
(g7
S'gfffff\xe6?'
p111
tp112
Rp113
sg13
I23
sg14
g21
sg16
F0.0938791652367319
sa(dp114
g2
g3
(g7
S'\x00\x00\x00\x00\x00\x00\xe0?'
p115
tp116
Rp117
sg13
I21
sg14
g15
sg16
F0.08290673537545466
sa(dp118
g2
g3
(g7
S'433333\xd3?'
p119
tp120
Rp121
sg13
I23
sg14
g21
sg16
F0.06345229755621187
sa(dp122
g2
g3
(g7
S'\x9a\x99\x99\x99\x99\x99\xd9?'
p123
tp124
Rp125
sg13
I0
sg14
g15
sg16
F0.06875191071932345
sa(dp126
g2
g3
(g7
S'433333\xe3?'
p127
tp128
Rp129
sg13
I74
sg14
g21
sg16
F0.0693863960324381
sa(dp130
g2
g3
(g7
S'\x9a\x99\x99\x99\x99\x99\xb9?'
p131
tp132
Rp133
sg13
I177
sg14
g21
sg16
F0.07996350670034819
sa(dp134
g2
g3
(g7
S'\x9a\x99\x99\x99\x99\x99\xc9?'
p135
tp136
Rp137
sg13
I191
sg14
g15
sg16
F0.08032286780366563
sa(dp138
g2
g3
(g7
S'\x9a\x99\x99\x99\x99\x99\xd9?'
p139
tp140
Rp141
sg13
I171
sg14
g21
sg16
F0.06744342885584079
sa(dp142
g2
g3
(g7
S'\x9a\x99\x99\x99\x99\x99\xc9?'
p143
tp144
Rp145
sg13
I23
sg14
g21
sg16
F0.04933717609710716
sa(dp146
g2
g3
(g7
S'433333\xd3?'
p147
tp148
Rp149
sg13
I21
sg14
g15
sg16
F0.05546911447034092
sa(dp150
g2
g3
(g7
S'433333\xe3?'
p151
tp152
Rp153
sg13
I191
sg14
g15
sg16
F0.05008335109992476
sa(dp154
g2
g3
(g7
S'gfffff\xe6?'
p155
tp156
Rp157
sg13
I20
sg14
g21
sg16
F0.06805194940940708
sa(dp158
g2
g3
(g7
S'gfffff\xe6?'
p159
tp160
Rp161
sg13
I0
sg14
g15
sg16
F0.0694702886244259
sa(dp162
g2
g3
(g7
S'gfffff\xe6?'
p163
tp164
Rp165
sg13
I5
sg14
g21
sg16
F0.06390294361694551
sa(dp166
g2
g3
(g7
S'\xcd\xcc\xcc\xcc\xcc\xcc\xec?'
p167
tp168
Rp169
sg13
I179
sg14
g15
sg16
F0.06517226931979121
sa(dp170
g2
g3
(g7
S'gfffff\xe6?'
p171
tp172
Rp173
sg13
I95
sg14
g21
sg16
F0.06505398069112397
sa(dp174
g2
g3
(g7
S'433333\xe3?'
p175
tp176
Rp177
sg13
I134
sg14
g15
sg16
F0.05531593354140663
sa(dp178
g2
g3
(g7
S'gfffff\xe6?'
p179
tp180
Rp181
sg13
I179
sg14
g21
sg16
F0.057237141243965235
sa(dp182
g2
g3
(g7
S'\xcd\xcc\xcc\xcc\xcc\xcc\xec?'
p183
tp184
Rp185
sg13
I18
sg14
g15
sg16
F0.05983390344887029
sa(dp186
g2
g3
(g7
S'\x9a\x99\x99\x99\x99\x99\xe9?'
p187
tp188
Rp189
sg13
I23
sg14
g21
sg16
F0.05634604721485243
sa(dp190
g2
g3
(g7
S'\x9a\x99\x99\x99\x99\x99\xe9?'
p191
tp192
Rp193
sg13
I182
sg14
g15
sg16
F0.05176213895018153
sa(dp194
g2
g3
(g7
S'433333\xe3?'
p195
tp196
Rp197
sg13
I171
sg14
g21
sg16
F0.05091923704078236
sa(dp198
g2
g3
(g7
S'\x9a\x99\x99\x99\x99\x99\xd9?'
p199
tp200
Rp201
sg13
I2
sg14
g15
sg16
F0.04952444827514499
sa(dp202
g2
g3
(g7
S'433333\xd3?'
p203
tp204
Rp205
sg13
I32
sg14
g21
sg16
F0.048552838351546355
sa(dp206
g2
g3
(g7
S'\x9a\x99\x99\x99\x99\x99\xc9?'
p207
tp208
Rp209
sg13
I173
sg14
g15
sg16
F0.050687874231155186
sa(dp210
g2
g3
(g7
S'\x9a\x99\x99\x99\x99\x99\xc9?'
p211
tp212
Rp213
sg13
I58
sg14
g21
sg16
F0.04584884723497253
sa(dp214
g2
g3
(g7
S'gfffff\xe6?'
p215
tp216
Rp217
sg13
I98
sg14
g21
sg16
F0.04795697959471124
sa(dp218
g2
g3
(g7
S'\x9a\x99\x99\x99\x99\x99\xe9?'
p219
tp220
Rp221
sg13
I6
sg14
g15
sg16
F0.043688305412501675
sa(dp222
g2
g3
(g7
S'\x9a\x99\x99\x99\x99\x99\xe9?'
p223
tp224
Rp225
sg13
I2
sg14
g21
sg16
F0.04627743315818299
sa(dp226
g2
g3
(g7
S'\x00\x00\x00\x00\x00\x00\x00\x00'
p227
tp228
Rp229
sg13
I16
sg14
g21
sg16
F0.04420062535027438
sa(dp230
g2
g3
(g7
S'\x9a\x99\x99\x99\x99\x99\xc9?'
p231
tp232
Rp233
sg13
I120
sg14
g15
sg16
F0.049970132498542014
sa(dp234
g2
g3
(g7
S'\x00\x00\x00\x00\x00\x00\xe0?'
p235
tp236
Rp237
sg13
I183
sg14
g21
sg16
F0.040508025220566984
sa(dp238
g2
g3
(g7
S'433333\xe3?'
p239
tp240
Rp241
sg13
I182
sg14
g15
sg16
F0.04613078958126842
sa(dp242
g2
g3
(g7
S'gfffff\xe6?'
p243
tp244
Rp245
sg13
I179
sg14
g21
sg16
F0.04227436416874296
sa(dp246
g2
g3
(g7
S'\xcd\xcc\xcc\xcc\xcc\xcc\xec?'
p247
tp248
Rp249
sg13
I176
sg14
g15
sg16
F0.04919549476562708
sa(dp250
g2
g3
(g7
S'\x9a\x99\x99\x99\x99\x99\xc9?'
p251
tp252
Rp253
sg13
I185
sg14
g15
sg16
F0.04826557921738326
sa(dp254
g2
g3
(g7
S'\x9a\x99\x99\x99\x99\x99\xc9?'
p255
tp256
Rp257
sg13
I183
sg14
g21
sg16
F0.039948117050502586
sa(dp258
g2
g3
(g7
S'\x9a\x99\x99\x99\x99\x99\xe9?'
p259
tp260
Rp261
sg13
I23
sg14
g21
sg16
F0.042312432175702734
sa(dp262
g2
g3
(g7
S'433333\xe3?'
p263
tp264
Rp265
sg13
I22
sg14
g15
sg16
F0.045164312494109696
sa(dp266
g2
g3
(g7
S'433333\xe3?'
p267
tp268
Rp269
sg13
I14
sg14
g21
sg16
F0.04202650731362166
sa(dp270
g2
g3
(g7
S'\x9a\x99\x99\x99\x99\x99\xb9?'
p271
tp272
Rp273
sg13
I1
sg14
g21
sg16
F0.039027702425761035
sa(dp274
g2
g3
(g7
S'gfffff\xe6?'
p275
tp276
Rp277
sg13
I119
sg14
g21
sg16
F0.03939124725387909
sa(dp278
g2
g3
(g7
S'gfffff\xe6?'
p279
tp280
Rp281
sg13
I191
sg14
g15
sg16
F0.039878448390752635
sa(dp282
g2
g3
(g7
S'433333\xe3?'
p283
tp284
Rp285
sg13
I186
sg14
g21
sg16
F0.038962739268917745
sa(dp286
g2
g3
(g7
S'\x9a\x99\x99\x99\x99\x99\xd9?'
p287
tp288
Rp289
sg13
I124
sg14
g15
sg16
F0.03592832696396024
sa(dp290
g2
g3
(g7
S'gfffff\xe6?'
p291
tp292
Rp293
sg13
I18
sg14
g15
sg16
F0.03604676814146808
sa(dp294
g2
g3
(g7
S'\x9a\x99\x99\x99\x99\x99\xe9?'
p295
tp296
Rp297
sg13
I77
sg14
g21
sg16
F0.03949150382577627
sa(dp298
g2
g3
(g7
S'\x9a\x99\x99\x99\x99\x99\xe9?'
p299
tp300
Rp301
sg13
I82
sg14
g15
sg16
F0.03862874872647202
sa(dp302
g2
g3
(g7
S'gfffff\xe6?'
p303
tp304
Rp305
sg13
I179
sg14
g21
sg16
F0.03844857116407651
sa(dp306
g2
g3
(g7
S'433333\xe3?'
p307
tp308
Rp309
sg13
I176
sg14
g15
sg16
F0.03772945045656016
sa(dp310
g2
g3
(g7
S'\x9a\x99\x99\x99\x99\x99\xd9?'
p311
tp312
Rp313
sg13
I168
sg14
g21
sg16
F0.03683619510754821
sa(dp314
g2
g3
(g7
S'433333\xd3?'
p315
tp316
Rp317
sg13
I117
sg14
g15
sg16
F0.03442357698585609
sa(dp318
g2
g3
(g7
S'433333\xd3?'
p319
tp320
Rp321
sg13
I47
sg14
g21
sg16
F0.03180997155886322
sa(dp322
g2
g3
(g7
S'\x9a\x99\x99\x99\x99\x99\xd9?'
p323
tp324
Rp325
sg13
I2
sg14
g15
sg16
F0.030952645570950895
sa(dp326
g2
g3
(g7
S'\x00\x00\x00\x00\x00\x00\xe0?'
p327
tp328
Rp329
sg13
I2
sg14
g21
sg16
F0.04025483219059493
sa(dp330
g2
g3
(g7
S'\x9a\x99\x99\x99\x99\x99\xe9?'
p331
tp332
Rp333
sg13
I0
sg14
g15
sg16
F0.034787315927371096
sa(dp334
g2
g3
(g7
S'\x9a\x99\x99\x99\x99\x99\xb9?'
p335
tp336
Rp337
sg13
I191
sg14
g15
sg16
F0.03979601608798978
sa(dp338
g2
g3
(g7
S'\x00\x00\x00\x00\x00\x00\x00\x00'
p339
tp340
Rp341
sg13
I38
sg14
g21
sg16
F0.03180139708053064
sa(dp342
g2
g3
(g7
S'\x9a\x99\x99\x99\x99\x99\xe9?'
p343
tp344
Rp345
sg13
I5
sg14
g21
sg16
F0.038759640718631916
sa(dp346
g2
g3
(g7
S'433333\xe3?'
p347
tp348
Rp349
sg13
I25
sg14
g15
sg16
F0.03409594914519262
sa(dp350
g2
g3
(g7
S'\x00\x00\x00\x00\x00\x00\xe0?'
p351
tp352
Rp353
sg13
I98
sg14
g21
sg16
F0.033897657793157815
sa(dp354
g2
g3
(g7
S'\x00\x00\x00\x00\x00\x00\xe0?'
p355
tp356
Rp357
sg13
I179
sg14
g15
sg16
F0.03170993348642758
sa(dp358
g2
g3
(g7
S'\x00\x00\x00\x00\x00\x00\xe0?'
p359
tp360
Rp361
sg13
I185
sg14
g21
sg16
F0.029614865971990954
sa(dp362
g2
g3
(g7
S'\x00\x00\x00\x00\x00\x00\xe0?'
p363
tp364
Rp365
sg13
I191
sg14
g15
sg16
F0.03328369607261437
sa(dp366
g2
g3
(g7
S'433333\xd3?'
p367
tp368
Rp369
sg13
I189
sg14
g21
sg16
F0.029066431978712347
sa(dp370
g2
g3
(g7
S'\x9a\x99\x99\x99\x99\x99\xe9?'
p371
tp372
Rp373
sg13
I20
sg14
g21
sg16
F0.033889997503958116
sa(dp374
g2
g3
(g7
S'\xcd\xcc\xcc\xcc\xcc\xcc\xec?'
p375
tp376
Rp377
sg13
I18
sg14
g15
sg16
F0.0352159183647899
sa(dp378
g2
g3
(g7
S'\x9a\x99\x99\x99\x99\x99\xb9?'
p379
tp380
Rp381
sg13
I14
sg14
g15
sg16
F0.035593342978685424
sa(dp382
g2
g3
(g7
S'\x9a\x99\x99\x99\x99\x99\xc9?'
p383
tp384
Rp385
sg13
I2
sg14
g21
sg16
F0.033061043472428095
sa(dp386
g2
g3
(g7
S'\x9a\x99\x99\x99\x99\x99\xd9?'
p387
tp388
Rp389
sg13
I2
sg14
g15
sg16
F0.037590104596118286
sa(dp390
g2
g3
(g7
S'433333\xe3?'
p391
tp392
Rp393
sg13
I2
sg14
g21
sg16
F0.03241814374410993
sa(dp394
g2
g3
(g7
S'\x9a\x99\x99\x99\x99\x99\xc9?'
p395
tp396
Rp397
sg13
I19
sg14
g21
sg16
F0.028951702503875146
sa(dp398
g2
g3
(g7
S'433333\xd3?'
p399
tp400
Rp401
sg13
I24
sg14
g15
sg16
F0.03639467521876769
sa(dp402
g2
g3
(g7
S'433333\xd3?'
p403
tp404
Rp405
sg13
I26
sg14
g21
sg16
F0.02682120466456424
sa(dp406
g2
g3
(g7
S'\x9a\x99\x99\x99\x99\x99\xd9?'
p407
tp408
Rp409
sg13
I21
sg14
g15
sg16
F0.029810493688142696
sa(dp410
g2
g3
(g7
S'433333\xe3?'
p411
tp412
Rp413
sg13
I170
sg14
g15
sg16
F0.02463359579044687
sa.